#include <math.h>
#include <stdio.h>
#include <stdlib.h>
#include <string.h>

int main(){
int y,i,j,k,m,n,u[100][100],s,d,x;
scanf("%d",&k);

for(y=1;y<=k;y++){scanf("%d%d",&m,&n);for(i=0;i<m;i++){
for(j=0;j<n;j++){scanf("%d",&u[i][j]);}}
s=0;for(i=0;i<m;i++){
for(j=0;j<n;j++){s+=u[i][j];}}
d=0;for(i=1;i<m-1;i++){for(j=1;j<n-1;j++){d+=u[i][j];}}
x=s-d;printf("%d\n",x);}

return 0;
 
} 
