; ModuleID = '6/4175.c'
source_filename = "6/4175.c"
target datalayout = "e-m:e-p270:32:32-p271:32:32-p272:64:64-i64:64-f80:128-n8:16:32:64-S128"
target triple = "x86_64-pc-linux-gnu"

@.str = private unnamed_addr constant [3 x i8] c"%d\00", align 1
@.str.1 = private unnamed_addr constant [5 x i8] c"%d%d\00", align 1
@.str.2 = private unnamed_addr constant [4 x i8] c"%d\0A\00", align 1

; Function Attrs: noinline nounwind uwtable
define dso_local i32 @main() #0 {
  %1 = alloca i32, align 4
  %2 = alloca i32, align 4
  %3 = alloca i32, align 4
  %4 = alloca i32, align 4
  %5 = alloca i32, align 4
  %6 = alloca i32, align 4
  %7 = alloca i32, align 4
  %8 = alloca [100 x [100 x i32]], align 16
  %9 = alloca i32, align 4
  %10 = alloca i32, align 4
  %11 = alloca i32, align 4
  store i32 0, i32* %1, align 4
  %12 = call i32 (i8*, ...) @__isoc99_scanf(i8* getelementptr inbounds ([3 x i8], [3 x i8]* @.str, i64 0, i64 0), i32* %5)
  store i32 1, i32* %2, align 4
  br label %13

13:                                               ; preds = %105, %0
  %14 = load i32, i32* %2, align 4
  %15 = load i32, i32* %5, align 4
  %16 = icmp sle i32 %14, %15
  br i1 %16, label %17, label %108

17:                                               ; preds = %13
  %18 = call i32 (i8*, ...) @__isoc99_scanf(i8* getelementptr inbounds ([5 x i8], [5 x i8]* @.str.1, i64 0, i64 0), i32* %6, i32* %7)
  store i32 0, i32* %3, align 4
  br label %19

19:                                               ; preds = %40, %17
  %20 = load i32, i32* %3, align 4
  %21 = load i32, i32* %6, align 4
  %22 = icmp slt i32 %20, %21
  br i1 %22, label %23, label %43

23:                                               ; preds = %19
  store i32 0, i32* %4, align 4
  br label %24

24:                                               ; preds = %36, %23
  %25 = load i32, i32* %4, align 4
  %26 = load i32, i32* %7, align 4
  %27 = icmp slt i32 %25, %26
  br i1 %27, label %28, label %39

28:                                               ; preds = %24
  %29 = load i32, i32* %3, align 4
  %30 = sext i32 %29 to i64
  %31 = getelementptr inbounds [100 x [100 x i32]], [100 x [100 x i32]]* %8, i64 0, i64 %30
  %32 = load i32, i32* %4, align 4
  %33 = sext i32 %32 to i64
  %34 = getelementptr inbounds [100 x i32], [100 x i32]* %31, i64 0, i64 %33
  %35 = call i32 (i8*, ...) @__isoc99_scanf(i8* getelementptr inbounds ([3 x i8], [3 x i8]* @.str, i64 0, i64 0), i32* %34)
  br label %36

36:                                               ; preds = %28
  %37 = load i32, i32* %4, align 4
  %38 = add nsw i32 %37, 1
  store i32 %38, i32* %4, align 4
  br label %24

39:                                               ; preds = %24
  br label %40

40:                                               ; preds = %39
  %41 = load i32, i32* %3, align 4
  %42 = add nsw i32 %41, 1
  store i32 %42, i32* %3, align 4
  br label %19

43:                                               ; preds = %19
  store i32 0, i32* %9, align 4
  store i32 0, i32* %3, align 4
  br label %44

44:                                               ; preds = %67, %43
  %45 = load i32, i32* %3, align 4
  %46 = load i32, i32* %6, align 4
  %47 = icmp slt i32 %45, %46
  br i1 %47, label %48, label %70

48:                                               ; preds = %44
  store i32 0, i32* %4, align 4
  br label %49

49:                                               ; preds = %63, %48
  %50 = load i32, i32* %4, align 4
  %51 = load i32, i32* %7, align 4
  %52 = icmp slt i32 %50, %51
  br i1 %52, label %53, label %66

53:                                               ; preds = %49
  %54 = load i32, i32* %3, align 4
  %55 = sext i32 %54 to i64
  %56 = getelementptr inbounds [100 x [100 x i32]], [100 x [100 x i32]]* %8, i64 0, i64 %55
  %57 = load i32, i32* %4, align 4
  %58 = sext i32 %57 to i64
  %59 = getelementptr inbounds [100 x i32], [100 x i32]* %56, i64 0, i64 %58
  %60 = load i32, i32* %59, align 4
  %61 = load i32, i32* %9, align 4
  %62 = add nsw i32 %61, %60
  store i32 %62, i32* %9, align 4
  br label %63

63:                                               ; preds = %53
  %64 = load i32, i32* %4, align 4
  %65 = add nsw i32 %64, 1
  store i32 %65, i32* %4, align 4
  br label %49

66:                                               ; preds = %49
  br label %67

67:                                               ; preds = %66
  %68 = load i32, i32* %3, align 4
  %69 = add nsw i32 %68, 1
  store i32 %69, i32* %3, align 4
  br label %44

70:                                               ; preds = %44
  store i32 0, i32* %10, align 4
  store i32 1, i32* %3, align 4
  br label %71

71:                                               ; preds = %96, %70
  %72 = load i32, i32* %3, align 4
  %73 = load i32, i32* %6, align 4
  %74 = sub nsw i32 %73, 1
  %75 = icmp slt i32 %72, %74
  br i1 %75, label %76, label %99

76:                                               ; preds = %71
  store i32 1, i32* %4, align 4
  br label %77

77:                                               ; preds = %92, %76
  %78 = load i32, i32* %4, align 4
  %79 = load i32, i32* %7, align 4
  %80 = sub nsw i32 %79, 1
  %81 = icmp slt i32 %78, %80
  br i1 %81, label %82, label %95

82:                                               ; preds = %77
  %83 = load i32, i32* %3, align 4
  %84 = sext i32 %83 to i64
  %85 = getelementptr inbounds [100 x [100 x i32]], [100 x [100 x i32]]* %8, i64 0, i64 %84
  %86 = load i32, i32* %4, align 4
  %87 = sext i32 %86 to i64
  %88 = getelementptr inbounds [100 x i32], [100 x i32]* %85, i64 0, i64 %87
  %89 = load i32, i32* %88, align 4
  %90 = load i32, i32* %10, align 4
  %91 = add nsw i32 %90, %89
  store i32 %91, i32* %10, align 4
  br label %92

92:                                               ; preds = %82
  %93 = load i32, i32* %4, align 4
  %94 = add nsw i32 %93, 1
  store i32 %94, i32* %4, align 4
  br label %77

95:                                               ; preds = %77
  br label %96

96:                                               ; preds = %95
  %97 = load i32, i32* %3, align 4
  %98 = add nsw i32 %97, 1
  store i32 %98, i32* %3, align 4
  br label %71

99:                                               ; preds = %71
  %100 = load i32, i32* %9, align 4
  %101 = load i32, i32* %10, align 4
  %102 = sub nsw i32 %100, %101
  store i32 %102, i32* %11, align 4
  %103 = load i32, i32* %11, align 4
  %104 = call i32 (i8*, ...) @printf(i8* getelementptr inbounds ([4 x i8], [4 x i8]* @.str.2, i64 0, i64 0), i32 %103)
  br label %105

105:                                              ; preds = %99
  %106 = load i32, i32* %2, align 4
  %107 = add nsw i32 %106, 1
  store i32 %107, i32* %2, align 4
  br label %13

108:                                              ; preds = %13
  ret i32 0
}

declare dso_local i32 @__isoc99_scanf(i8*, ...) #1

declare dso_local i32 @printf(i8*, ...) #1


!llvm.module.flags = !{!0}
!llvm.ident = !{!1}

!0 = !{i32 1, !"wchar_size", i32 4}
!1 = !{!"clang version 10.0.0-4ubuntu1 "}
